target datalayout = "e-m:e-p270:32:32-p271:32:32-p272:64:64-i64:64-i128:128-f80:128-n8:16:32:64-S128"
target triple = "x86_64-unknown-linux-gnu"

%"struct.std::array" = type { [8 x i16] }
%"class.rocksdb::Slice" = type { ptr, i64 }
%"struct.rocksdb::CompressedSecondaryCache::CacheValueChunk" = type { ptr, i64, [1 x i8] }
%"struct.__gnu_cxx::__ops::_Val_less_iter" = type { i8 }

@_ZN7rocksdb24CompressedSecondaryCache17malloc_bin_sizes_E = linkonce_odr constant %"struct.std::array" { [8 x i16] [i16 128, i16 256, i16 512, i16 1024, i16 2048, i16 4096, i16 8192, i16 16384] }, comdat, align 2

; Function Attrs: mustprogress nounwind uwtable
define linkonce_odr void @_ZSt9__advanceIPKtlEvRT_T0_St26random_access_iterator_tag(ptr noundef nonnull align 8 dereferenceable(8) %__i, i64 noundef %__n) #1 comdat {
entry:
  %__i.addr = alloca ptr, align 8
  %__n.addr = alloca i64, align 8
  store ptr %__i, ptr %__i.addr, align 8
  store i64 %__n, ptr %__n.addr, align 8
  %0 = load i64, ptr %__n.addr, align 8
  %1 = call i1 @llvm.is.constant.i64(i64 %0)
  br i1 %1, label %land.lhs.true, label %if.else

land.lhs.true:                                    ; preds = %entry
  %2 = load i64, ptr %__n.addr, align 8
  %cmp = icmp eq i64 %2, 1
  br i1 %cmp, label %if.then, label %if.else

if.then:                                          ; preds = %land.lhs.true
  %3 = load ptr, ptr %__i.addr, align 8
  %4 = load ptr, ptr %3, align 8
  %incdec.ptr = getelementptr inbounds i16, ptr %4, i32 1
  store ptr %incdec.ptr, ptr %3, align 8
  br label %if.end6

if.else:                                          ; preds = %land.lhs.true, %entry
  %5 = load i64, ptr %__n.addr, align 8
  %6 = call i1 @llvm.is.constant.i64(i64 %5)
  br i1 %6, label %land.lhs.true1, label %if.else5

land.lhs.true1:                                   ; preds = %if.else
  %7 = load i64, ptr %__n.addr, align 8
  %cmp2 = icmp eq i64 %7, -1
  br i1 %cmp2, label %if.then3, label %if.else5

if.then3:                                         ; preds = %land.lhs.true1
  %8 = load ptr, ptr %__i.addr, align 8
  %9 = load ptr, ptr %8, align 8
  %incdec.ptr4 = getelementptr inbounds i16, ptr %9, i32 -1
  store ptr %incdec.ptr4, ptr %8, align 8
  br label %if.end

if.else5:                                         ; preds = %land.lhs.true1, %if.else
  %10 = load i64, ptr %__n.addr, align 8
  %11 = load ptr, ptr %__i.addr, align 8
  %12 = load ptr, ptr %11, align 8
  %add.ptr = getelementptr inbounds i16, ptr %12, i64 %10
  store ptr %add.ptr, ptr %11, align 8
  br label %if.end

if.end:                                           ; preds = %if.else5, %if.then3
  br label %if.end6

if.end6:                                          ; preds = %if.end, %if.then
  ret void
}

; Function Attrs: mustprogress nounwind uwtable
define linkonce_odr noundef i64 @_ZSt10__distanceIPKtENSt15iterator_traitsIT_E15difference_typeES3_S3_St26random_access_iterator_tag(ptr noundef %__first, ptr noundef %__last) #1 comdat {
entry:
  %__first.addr = alloca ptr, align 8
  %__last.addr = alloca ptr, align 8
  store ptr %__first, ptr %__first.addr, align 8
  store ptr %__last, ptr %__last.addr, align 8
  %0 = load ptr, ptr %__last.addr, align 8
  %1 = load ptr, ptr %__first.addr, align 8
  %sub.ptr.lhs.cast = ptrtoint ptr %0 to i64
  %sub.ptr.rhs.cast = ptrtoint ptr %1 to i64
  %sub.ptr.sub = sub i64 %sub.ptr.lhs.cast, %sub.ptr.rhs.cast
  %sub.ptr.div = sdiv exact i64 %sub.ptr.sub, 2
  ret i64 %sub.ptr.div
}

; Function Attrs: mustprogress nounwind uwtable
define linkonce_odr void @_ZSt19__iterator_categoryIPKtENSt15iterator_traitsIT_E17iterator_categoryERKS3_(ptr noundef nonnull align 8 dereferenceable(8) %0) #1 comdat {
entry:
  %.addr = alloca ptr, align 8
  store ptr %0, ptr %.addr, align 8
  ret void
}

; Function Attrs: mustprogress nounwind uwtable
define linkonce_odr noundef zeroext i1 @_ZNK9__gnu_cxx5__ops14_Val_less_iterclIKmPKtEEbRT_T0_(ptr noundef nonnull align 1 dereferenceable(1) %this, ptr noundef nonnull align 8 dereferenceable(8) %__val, ptr noundef %__it) #1 comdat align 2 {
entry:
  %this.addr = alloca ptr, align 8
  %__val.addr = alloca ptr, align 8
  %__it.addr = alloca ptr, align 8
  store ptr %this, ptr %this.addr, align 8
  store ptr %__val, ptr %__val.addr, align 8
  store ptr %__it, ptr %__it.addr, align 8
  %0 = load ptr, ptr %__val.addr, align 8
  %1 = load i64, ptr %0, align 8
  %2 = load ptr, ptr %__it.addr, align 8
  %3 = load i16, ptr %2, align 2
  %conv = zext i16 %3 to i64
  %cmp = icmp ult i64 %1, %conv
  ret i1 %cmp
}

; Function Attrs: mustprogress uwtable
define linkonce_odr void @_ZSt7advanceIPKtlEvRT_T0_(ptr noundef nonnull align 8 dereferenceable(8) %__i, i64 noundef %__n) #0 comdat {
entry:
  %__i.addr = alloca ptr, align 8
  %__n.addr = alloca i64, align 8
  %__d = alloca i64, align 8
  store ptr %__i, ptr %__i.addr, align 8
  store i64 %__n, ptr %__n.addr, align 8
  %0 = load i64, ptr %__n.addr, align 8
  store i64 %0, ptr %__d, align 8
  %1 = load ptr, ptr %__i.addr, align 8
  %2 = load i64, ptr %__d, align 8
  %3 = load ptr, ptr %__i.addr, align 8
  call void @_ZSt19__iterator_categoryIPKtENSt15iterator_traitsIT_E17iterator_categoryERKS3_(ptr noundef nonnull align 8 dereferenceable(8) %3)
  call void @_ZSt9__advanceIPKtlEvRT_T0_St26random_access_iterator_tag(ptr noundef nonnull align 8 dereferenceable(8) %1, i64 noundef %2)
  ret void
}

; Function Attrs: mustprogress uwtable
define linkonce_odr noundef i64 @_ZSt8distanceIPKtENSt15iterator_traitsIT_E15difference_typeES3_S3_(ptr noundef %__first, ptr noundef %__last) #0 comdat {
entry:
  %__first.addr = alloca ptr, align 8
  %__last.addr = alloca ptr, align 8
  store ptr %__first, ptr %__first.addr, align 8
  store ptr %__last, ptr %__last.addr, align 8
  %0 = load ptr, ptr %__first.addr, align 8
  %1 = load ptr, ptr %__last.addr, align 8
  call void @_ZSt19__iterator_categoryIPKtENSt15iterator_traitsIT_E17iterator_categoryERKS3_(ptr noundef nonnull align 8 dereferenceable(8) %__first.addr)
  %call = call noundef i64 @_ZSt10__distanceIPKtENSt15iterator_traitsIT_E15difference_typeES3_S3_St26random_access_iterator_tag(ptr noundef %0, ptr noundef %1)
  ret i64 %call
}

; Function Attrs: mustprogress nounwind uwtable
define linkonce_odr noundef ptr @_ZNSt14__array_traitsItLm8EE6_S_ptrERA8_Kt(ptr noundef nonnull align 2 dereferenceable(16) %__t) #1 comdat align 2 {
entry:
  %__t.addr = alloca ptr, align 8
  store ptr %__t, ptr %__t.addr, align 8
  %0 = load ptr, ptr %__t.addr, align 8
  %arraydecay = getelementptr inbounds [8 x i16], ptr %0, i64 0, i64 0
  ret ptr %arraydecay
}

; Function Attrs: mustprogress nounwind uwtable
define linkonce_odr noundef nonnull align 2 dereferenceable(2) ptr @_ZNSt14__array_traitsItLm8EE6_S_refERA8_Ktm(ptr noundef nonnull align 2 dereferenceable(16) %__t, i64 noundef %__n) #1 comdat align 2 {
entry:
  %__t.addr = alloca ptr, align 8
  %__n.addr = alloca i64, align 8
  store ptr %__t, ptr %__t.addr, align 8
  store i64 %__n, ptr %__n.addr, align 8
  %0 = load ptr, ptr %__t.addr, align 8
  %1 = load i64, ptr %__n.addr, align 8
  %arrayidx = getelementptr inbounds [8 x i16], ptr %0, i64 0, i64 %1
  ret ptr %arrayidx
}

; Function Attrs: mustprogress uwtable
define linkonce_odr noundef ptr @_ZSt13__upper_boundIPKtmN9__gnu_cxx5__ops14_Val_less_iterEET_S5_S5_RKT0_T1_(ptr noundef %__first, ptr noundef %__last, ptr noundef nonnull align 8 dereferenceable(8) %__val) #0 comdat {
entry:
  %__comp = alloca %"struct.__gnu_cxx::__ops::_Val_less_iter", align 1
  %__first.addr = alloca ptr, align 8
  %__last.addr = alloca ptr, align 8
  %__val.addr = alloca ptr, align 8
  %__len = alloca i64, align 8
  %__half = alloca i64, align 8
  %__middle = alloca ptr, align 8
  store ptr %__first, ptr %__first.addr, align 8
  store ptr %__last, ptr %__last.addr, align 8
  store ptr %__val, ptr %__val.addr, align 8
  %0 = load ptr, ptr %__first.addr, align 8
  %1 = load ptr, ptr %__last.addr, align 8
  %call = call noundef i64 @_ZSt8distanceIPKtENSt15iterator_traitsIT_E15difference_typeES3_S3_(ptr noundef %0, ptr noundef %1)
  store i64 %call, ptr %__len, align 8
  br label %while.cond

while.cond:                                       ; preds = %if.end, %entry
  %2 = load i64, ptr %__len, align 8
  %cmp = icmp sgt i64 %2, 0
  br i1 %cmp, label %while.body, label %while.end

while.body:                                       ; preds = %while.cond
  %3 = load i64, ptr %__len, align 8
  %shr = ashr i64 %3, 1
  store i64 %shr, ptr %__half, align 8
  %4 = load ptr, ptr %__first.addr, align 8
  store ptr %4, ptr %__middle, align 8
  %5 = load i64, ptr %__half, align 8
  call void @_ZSt7advanceIPKtlEvRT_T0_(ptr noundef nonnull align 8 dereferenceable(8) %__middle, i64 noundef %5)
  %6 = load ptr, ptr %__val.addr, align 8
  %7 = load ptr, ptr %__middle, align 8
  %call1 = call noundef zeroext i1 @_ZNK9__gnu_cxx5__ops14_Val_less_iterclIKmPKtEEbRT_T0_(ptr noundef nonnull align 1 dereferenceable(1) %__comp, ptr noundef nonnull align 8 dereferenceable(8) %6, ptr noundef %7)
  br i1 %call1, label %if.then, label %if.else

if.then:                                          ; preds = %while.body
  %8 = load i64, ptr %__half, align 8
  store i64 %8, ptr %__len, align 8
  br label %if.end

if.else:                                          ; preds = %while.body
  %9 = load ptr, ptr %__middle, align 8
  store ptr %9, ptr %__first.addr, align 8
  %10 = load ptr, ptr %__first.addr, align 8
  %incdec.ptr = getelementptr inbounds i16, ptr %10, i32 1
  store ptr %incdec.ptr, ptr %__first.addr, align 8
  %11 = load i64, ptr %__len, align 8
  %12 = load i64, ptr %__half, align 8
  %sub = sub nsw i64 %11, %12
  %sub2 = sub nsw i64 %sub, 1
  store i64 %sub2, ptr %__len, align 8
  br label %if.end

if.end:                                           ; preds = %if.else, %if.then
  br label %while.cond, !llvm.loop !13

while.end:                                        ; preds = %while.cond
  %13 = load ptr, ptr %__first.addr, align 8
  ret ptr %13
}

; Function Attrs: mustprogress nounwind uwtable
define linkonce_odr void @_ZN9__gnu_cxx5__ops15__val_less_iterEv() #1 comdat {
entry:
  ret void
}

; Function Attrs: mustprogress nounwind uwtable
define linkonce_odr noundef ptr @_ZNKSt5arrayItLm8EE4dataEv(ptr noundef nonnull align 2 dereferenceable(16) %this) #1 comdat align 2 {
entry:
  %this.addr = alloca ptr, align 8
  store ptr %this, ptr %this.addr, align 8
  %this1 = load ptr, ptr %this.addr, align 8
  %_M_elems = getelementptr inbounds %"struct.std::array", ptr %this1, i32 0, i32 0
  %call = call noundef ptr @_ZNSt14__array_traitsItLm8EE6_S_ptrERA8_Kt(ptr noundef nonnull align 2 dereferenceable(16) %_M_elems) #9
  ret ptr %call
}

; Function Attrs: mustprogress nounwind uwtable
define linkonce_odr noundef nonnull align 2 dereferenceable(2) ptr @_ZNKSt5arrayItLm8EE5frontEv(ptr noundef nonnull align 2 dereferenceable(16) %this) #1 comdat align 2 {
entry:
  %this.addr = alloca ptr, align 8
  store ptr %this, ptr %this.addr, align 8
  %this1 = load ptr, ptr %this.addr, align 8
  %_M_elems = getelementptr inbounds %"struct.std::array", ptr %this1, i32 0, i32 0
  %call = call noundef nonnull align 2 dereferenceable(2) ptr @_ZNSt14__array_traitsItLm8EE6_S_refERA8_Ktm(ptr noundef nonnull align 2 dereferenceable(16) %_M_elems, i64 noundef 0) #9
  ret ptr %call
}

; Function Attrs: mustprogress uwtable
define linkonce_odr noundef ptr @_ZSt11upper_boundIPKtmET_S2_S2_RKT0_(ptr noundef %__first, ptr noundef %__last, ptr noundef nonnull align 8 dereferenceable(8) %__val) #0 comdat {
entry:
  %__first.addr = alloca ptr, align 8
  %__last.addr = alloca ptr, align 8
  %__val.addr = alloca ptr, align 8
  store ptr %__first, ptr %__first.addr, align 8
  store ptr %__last, ptr %__last.addr, align 8
  store ptr %__val, ptr %__val.addr, align 8
  %0 = load ptr, ptr %__first.addr, align 8
  %1 = load ptr, ptr %__last.addr, align 8
  %2 = load ptr, ptr %__val.addr, align 8
  call void @_ZN9__gnu_cxx5__ops15__val_less_iterEv()
  %call = call noundef ptr @_ZSt13__upper_boundIPKtmN9__gnu_cxx5__ops14_Val_less_iterEET_S5_S5_RKT0_T1_(ptr noundef %0, ptr noundef %1, ptr noundef nonnull align 8 dereferenceable(8) %2)
  ret ptr %call
}

; Function Attrs: mustprogress nounwind uwtable
define linkonce_odr noundef ptr @_ZNKSt5arrayItLm8EE3endEv(ptr noundef nonnull align 2 dereferenceable(16) %this) #1 comdat align 2 {
entry:
  %this.addr = alloca ptr, align 8
  store ptr %this, ptr %this.addr, align 8
  %this1 = load ptr, ptr %this.addr, align 8
  %call = call noundef ptr @_ZNKSt5arrayItLm8EE4dataEv(ptr noundef nonnull align 2 dereferenceable(16) %this1) #9
  %add.ptr = getelementptr inbounds i16, ptr %call, i64 8
  ret ptr %add.ptr
}

; Function Attrs: mustprogress nounwind uwtable
define linkonce_odr noundef ptr @_ZNKSt5arrayItLm8EE5beginEv(ptr noundef nonnull align 2 dereferenceable(16) %this) #1 comdat align 2 {
entry:
  %this.addr = alloca ptr, align 8
  store ptr %this, ptr %this.addr, align 8
  %this1 = load ptr, ptr %this.addr, align 8
  %call = call noundef ptr @_ZNKSt5arrayItLm8EE4dataEv(ptr noundef nonnull align 2 dereferenceable(16) %this1) #9
  ret ptr %call
}

; Function Attrs: mustprogress nounwind uwtable
define linkonce_odr noundef i64 @_ZNK7rocksdb5Slice4sizeEv(ptr noundef nonnull align 8 dereferenceable(16) %this) #1 comdat align 2 {
entry:
  %this.addr = alloca ptr, align 8
  store ptr %this, ptr %this.addr, align 8
  %this1 = load ptr, ptr %this.addr, align 8
  %size_ = getelementptr inbounds %"class.rocksdb::Slice", ptr %this1, i32 0, i32 1
  %0 = load i64, ptr %size_, align 8
  ret i64 %0
}

; Function Attrs: mustprogress nounwind uwtable
define linkonce_odr noundef ptr @_ZNK7rocksdb5Slice4dataEv(ptr noundef nonnull align 8 dereferenceable(16) %this) #1 comdat align 2 {
entry:
  %this.addr = alloca ptr, align 8
  store ptr %this, ptr %this.addr, align 8
  %this1 = load ptr, ptr %this.addr, align 8
  %data_ = getelementptr inbounds %"class.rocksdb::Slice", ptr %this1, i32 0, i32 0
  %0 = load ptr, ptr %data_, align 8
  ret ptr %0
}

; Function Attrs: mustprogress uwtable
define noundef ptr @_ZN7rocksdb24CompressedSecondaryCache20SplitValueIntoChunksERKNS_5SliceENS_15CompressionTypeERm(ptr noundef nonnull align 8 dereferenceable(217) %this, ptr noundef nonnull align 8 dereferenceable(16) %value, i8 noundef zeroext %compression_type, ptr noundef nonnull align 8 dereferenceable(8) %charge) #0 align 2 {
entry:
  %this.addr = alloca ptr, align 8
  %value.addr = alloca ptr, align 8
  %compression_type.addr = alloca i8, align 1
  %charge.addr = alloca ptr, align 8
  %src_ptr = alloca ptr, align 8
  %src_size = alloca i64, align 8
  %dummy_head = alloca %"struct.rocksdb::CompressedSecondaryCache::CacheValueChunk", align 8
  %current_chunk = alloca ptr, align 8
  %predicted_chunk_size = alloca i64, align 8
  %actual_chunk_size = alloca i64, align 8
  %tmp_size = alloca i64, align 8
  %upper = alloca ptr, align 8
  %new_chunk = alloca ptr, align 8
  store ptr %this, ptr %this.addr, align 8
  store ptr %value, ptr %value.addr, align 8
  store i8 %compression_type, ptr %compression_type.addr, align 1
  store ptr %charge, ptr %charge.addr, align 8
  %0 = load ptr, ptr %value.addr, align 8
  %call = call noundef ptr @_ZNK7rocksdb5Slice4dataEv(ptr noundef nonnull align 8 dereferenceable(16) %0)
  store ptr %call, ptr %src_ptr, align 8
  %1 = load ptr, ptr %value.addr, align 8
  %call2 = call noundef i64 @_ZNK7rocksdb5Slice4sizeEv(ptr noundef nonnull align 8 dereferenceable(16) %1)
  store i64 %call2, ptr %src_size, align 8
  call void @llvm.memset.p0.i64(ptr align 8 %dummy_head, i8 0, i64 24, i1 false)
  store ptr %dummy_head, ptr %current_chunk, align 8
  store i64 0, ptr %predicted_chunk_size, align 8
  store i64 0, ptr %actual_chunk_size, align 8
  store i64 0, ptr %tmp_size, align 8
  br label %while.cond

while.cond:                                       ; preds = %if.end, %entry
  %2 = load i64, ptr %src_size, align 8
  %cmp = icmp ugt i64 %2, 0
  br i1 %cmp, label %while.body, label %while.end

while.body:                                       ; preds = %while.cond
  %3 = load i64, ptr %src_size, align 8
  %add = add i64 23, %3
  store i64 %add, ptr %predicted_chunk_size, align 8
  %call3 = call noundef ptr @_ZNKSt5arrayItLm8EE5beginEv(ptr noundef nonnull align 2 dereferenceable(16) @_ZN7rocksdb24CompressedSecondaryCache17malloc_bin_sizes_E) #9
  %call4 = call noundef ptr @_ZNKSt5arrayItLm8EE3endEv(ptr noundef nonnull align 2 dereferenceable(16) @_ZN7rocksdb24CompressedSecondaryCache17malloc_bin_sizes_E) #9
  %call5 = call noundef ptr @_ZSt11upper_boundIPKtmET_S2_S2_RKT0_(ptr noundef %call3, ptr noundef %call4, ptr noundef nonnull align 8 dereferenceable(8) %predicted_chunk_size)
  store ptr %call5, ptr %upper, align 8
  %4 = load ptr, ptr %upper, align 8
  %call6 = call noundef ptr @_ZNKSt5arrayItLm8EE5beginEv(ptr noundef nonnull align 2 dereferenceable(16) @_ZN7rocksdb24CompressedSecondaryCache17malloc_bin_sizes_E) #9
  %cmp7 = icmp eq ptr %4, %call6
  br i1 %cmp7, label %if.then, label %lor.lhs.false

lor.lhs.false:                                    ; preds = %while.body
  %5 = load ptr, ptr %upper, align 8
  %call8 = call noundef ptr @_ZNKSt5arrayItLm8EE3endEv(ptr noundef nonnull align 2 dereferenceable(16) @_ZN7rocksdb24CompressedSecondaryCache17malloc_bin_sizes_E) #9
  %cmp9 = icmp eq ptr %5, %call8
  br i1 %cmp9, label %if.then, label %lor.lhs.false10

lor.lhs.false10:                                  ; preds = %lor.lhs.false
  %6 = load ptr, ptr %upper, align 8
  %7 = load i16, ptr %6, align 2
  %conv = zext i16 %7 to i64
  %8 = load i64, ptr %predicted_chunk_size, align 8
  %sub = sub i64 %conv, %8
  %call11 = call noundef nonnull align 2 dereferenceable(2) ptr @_ZNKSt5arrayItLm8EE5frontEv(ptr noundef nonnull align 2 dereferenceable(16) @_ZN7rocksdb24CompressedSecondaryCache17malloc_bin_sizes_E) #9
  %9 = load i16, ptr %call11, align 2
  %conv12 = zext i16 %9 to i64
  %cmp13 = icmp ult i64 %sub, %conv12
  br i1 %cmp13, label %if.then, label %lor.lhs.false14

lor.lhs.false14:                                  ; preds = %lor.lhs.false10
  %10 = load i8, ptr %compression_type.addr, align 1
  %conv15 = zext i8 %10 to i32
  %cmp16 = icmp eq i32 %conv15, 0
  br i1 %cmp16, label %if.then, label %if.else

if.then:                                          ; preds = %lor.lhs.false14, %lor.lhs.false10, %lor.lhs.false, %while.body
  %11 = load i64, ptr %predicted_chunk_size, align 8
  store i64 %11, ptr %tmp_size, align 8
  br label %if.end

if.else:                                          ; preds = %lor.lhs.false14
  %12 = load ptr, ptr %upper, align 8
  %incdec.ptr = getelementptr inbounds i16, ptr %12, i32 -1
  store ptr %incdec.ptr, ptr %upper, align 8
  %13 = load i16, ptr %incdec.ptr, align 2
  %conv17 = zext i16 %13 to i64
  store i64 %conv17, ptr %tmp_size, align 8
  br label %if.end

if.end:                                           ; preds = %if.else, %if.then
  %14 = load i64, ptr %tmp_size, align 8
  %call18 = call noalias noundef nonnull ptr @_Znam(i64 noundef %14) #16
  store ptr %call18, ptr %new_chunk, align 8
  %15 = load ptr, ptr %new_chunk, align 8
  %16 = load ptr, ptr %current_chunk, align 8
  %next = getelementptr inbounds %"struct.rocksdb::CompressedSecondaryCache::CacheValueChunk", ptr %16, i32 0, i32 0
  store ptr %15, ptr %next, align 8
  %17 = load ptr, ptr %current_chunk, align 8
  %next19 = getelementptr inbounds %"struct.rocksdb::CompressedSecondaryCache::CacheValueChunk", ptr %17, i32 0, i32 0
  %18 = load ptr, ptr %next19, align 8
  store ptr %18, ptr %current_chunk, align 8
  %19 = load i64, ptr %tmp_size, align 8
  %sub20 = sub i64 %19, 24
  %add21 = add i64 %sub20, 1
  store i64 %add21, ptr %actual_chunk_size, align 8
  %20 = load ptr, ptr %current_chunk, align 8
  %data = getelementptr inbounds %"struct.rocksdb::CompressedSecondaryCache::CacheValueChunk", ptr %20, i32 0, i32 2
  %arraydecay = getelementptr inbounds [1 x i8], ptr %data, i64 0, i64 0
  %21 = load ptr, ptr %src_ptr, align 8
  %22 = load i64, ptr %actual_chunk_size, align 8
  call void @llvm.memcpy.p0.p0.i64(ptr align 8 %arraydecay, ptr align 1 %21, i64 %22, i1 false)
  %23 = load i64, ptr %actual_chunk_size, align 8
  %24 = load ptr, ptr %current_chunk, align 8
  %size = getelementptr inbounds %"struct.rocksdb::CompressedSecondaryCache::CacheValueChunk", ptr %24, i32 0, i32 1
  store i64 %23, ptr %size, align 8
  %25 = load i64, ptr %actual_chunk_size, align 8
  %26 = load ptr, ptr %src_ptr, align 8
  %add.ptr = getelementptr inbounds i8, ptr %26, i64 %25
  store ptr %add.ptr, ptr %src_ptr, align 8
  %27 = load i64, ptr %actual_chunk_size, align 8
  %28 = load i64, ptr %src_size, align 8
  %sub22 = sub i64 %28, %27
  store i64 %sub22, ptr %src_size, align 8
  %29 = load i64, ptr %tmp_size, align 8
  %30 = load ptr, ptr %charge.addr, align 8
  %31 = load i64, ptr %30, align 8
  %add23 = add i64 %31, %29
  store i64 %add23, ptr %30, align 8
  br label %while.cond, !llvm.loop !8

while.end:                                        ; preds = %while.cond
  %32 = load ptr, ptr %current_chunk, align 8
  %next24 = getelementptr inbounds %"struct.rocksdb::CompressedSecondaryCache::CacheValueChunk", ptr %32, i32 0, i32 0
  store ptr null, ptr %next24, align 8
  %next25 = getelementptr inbounds %"struct.rocksdb::CompressedSecondaryCache::CacheValueChunk", ptr %dummy_head, i32 0, i32 0
  %33 = load ptr, ptr %next25, align 8
  ret ptr %33
}