; Function Attrs: mustprogress uwtable
define noundef ptr @_ZN7rocksdb24CompressedSecondaryCache20SplitValueIntoChunksERKNS_5SliceENS_15CompressionTypeERm(ptr nocapture noundef nonnull readnone align 8 dereferenceable(217) %this, ptr nocapture noundef nonnull readonly align 8 dereferenceable(16) %value, i8 noundef zeroext %compression_type, ptr nocapture noundef nonnull align 8 dereferenceable(8) %charge) local_unnamed_addr #0 align 2 {
entry:
  %dummy_head.sroa.0 = alloca ptr, align 8
  %0 = load ptr, ptr %value, align 8
  %size_.i = getelementptr inbounds i8, ptr %value, i64 8
  %1 = load i64, ptr %size_.i, align 8
  store ptr null, ptr %dummy_head.sroa.0, align 8
  %cmp.not21 = icmp eq i64 %1, 0
  br i1 %cmp.not21, label %while.end, label %while.body.lr.ph

while.body.lr.ph:                                 ; preds = %entry
  %charge.promoted = load i64, ptr %charge, align 8
  %cmp16 = icmp eq i8 %compression_type, 0
  br label %while.body

while.body:                                       ; preds = %while.body.lr.ph, %if.end
  %src_ptr.025 = phi ptr [ %0, %while.body.lr.ph ], [ %add.ptr, %if.end ]
  %current_chunk.024 = phi ptr [ %dummy_head.sroa.0, %while.body.lr.ph ], [ %call18, %if.end ]
  %src_size.023 = phi i64 [ %1, %while.body.lr.ph ], [ %sub22, %if.end ]
  %add232022 = phi i64 [ %charge.promoted, %while.body.lr.ph ], [ %add23, %if.end ]
  %add = add i64 %src_size.023, 23
  br label %while.body.i.i

while.body.i.i:                                   ; preds = %while.body.i.i, %while.body
  %__first.addr.013.i.i = phi ptr [ @_ZN7rocksdb24CompressedSecondaryCache17malloc_bin_sizes_E, %while.body ], [ %__first.addr.1.i.i, %while.body.i.i ]
  %__len.012.i.i = phi i64 [ 8, %while.body ], [ %__len.1.i.i, %while.body.i.i ]
  %shr.i.i = lshr i64 %__len.012.i.i, 1
  %add.ptr.i.i.i.i = getelementptr inbounds i16, ptr %__first.addr.013.i.i, i64 %shr.i.i
  %2 = load i16, ptr %add.ptr.i.i.i.i, align 2
  %conv.i.i.i = zext i16 %2 to i64
  %cmp.i.i.i = icmp ult i64 %add, %conv.i.i.i
  %incdec.ptr.i.i = getelementptr inbounds i8, ptr %add.ptr.i.i.i.i, i64 2
  %3 = xor i64 %shr.i.i, -1
  %sub2.i.i = add nsw i64 %__len.012.i.i, %3
  %__len.1.i.i = select i1 %cmp.i.i.i, i64 %shr.i.i, i64 %sub2.i.i
  %__first.addr.1.i.i = select i1 %cmp.i.i.i, ptr %__first.addr.013.i.i, ptr %incdec.ptr.i.i
  %cmp.i.i = icmp sgt i64 %__len.1.i.i, 0
  br i1 %cmp.i.i, label %while.body.i.i, label %_ZSt11upper_boundIPKtmET_S2_S2_RKT0_.exit, !llvm.loop !33

_ZSt11upper_boundIPKtmET_S2_S2_RKT0_.exit:        ; preds = %while.body.i.i
  %cmp7 = icmp eq ptr %__first.addr.1.i.i, @_ZN7rocksdb24CompressedSecondaryCache17malloc_bin_sizes_E
  %cmp9 = icmp eq ptr %__first.addr.1.i.i, getelementptr inbounds (%"struct.std::array", ptr @_ZN7rocksdb24CompressedSecondaryCache17malloc_bin_sizes_E, i64 1, i32 0, i64 0)
  %or.cond19 = select i1 %cmp7, i1 true, i1 %cmp9
  br i1 %or.cond19, label %if.end, label %lor.lhs.false10

lor.lhs.false10:                                  ; preds = %_ZSt11upper_boundIPKtmET_S2_S2_RKT0_.exit
  %4 = load i16, ptr %__first.addr.1.i.i, align 2
  %conv = zext i16 %4 to i64
  %sub = sub i64 %conv, %add
  %cmp13 = icmp ult i64 %sub, 128
  %or.cond = or i1 %cmp16, %cmp13
  br i1 %or.cond, label %if.end, label %if.else

if.else:                                          ; preds = %lor.lhs.false10
  %incdec.ptr = getelementptr inbounds i8, ptr %__first.addr.1.i.i, i64 -2
  %5 = load i16, ptr %incdec.ptr, align 2
  %conv17 = zext i16 %5 to i64
  br label %if.end

if.end:                                           ; preds = %_ZSt11upper_boundIPKtmET_S2_S2_RKT0_.exit, %lor.lhs.false10, %if.else
  %tmp_size.0 = phi i64 [ %conv17, %if.else ], [ %add, %lor.lhs.false10 ], [ %add, %_ZSt11upper_boundIPKtmET_S2_S2_RKT0_.exit ]
  %call18 = tail call noalias noundef nonnull ptr @_Znam(i64 noundef %tmp_size.0) #19
  store ptr %call18, ptr %current_chunk.024, align 8
  %add21 = add i64 %tmp_size.0, -23
  %data = getelementptr inbounds i8, ptr %call18, i64 16
  tail call void @llvm.memcpy.p0.p0.i64(ptr nonnull align 8 %data, ptr align 1 %src_ptr.025, i64 %add21, i1 false)
  %size = getelementptr inbounds i8, ptr %call18, i64 8
  store i64 %add21, ptr %size, align 8
  %add.ptr = getelementptr inbounds i8, ptr %src_ptr.025, i64 %add21
  %sub22 = sub i64 %src_size.023, %add21
  %add23 = add i64 %add232022, %tmp_size.0
  store i64 %add23, ptr %charge, align 8
  %cmp.not = icmp eq i64 %sub22, 0
  br i1 %cmp.not, label %while.end, label %while.body, !llvm.loop !34

while.end:                                        ; preds = %if.end, %entry
  %current_chunk.0.lcssa = phi ptr [ %dummy_head.sroa.0, %entry ], [ %call18, %if.end ]
  store ptr null, ptr %current_chunk.0.lcssa, align 8
  %dummy_head.sroa.0.0.dummy_head.sroa.0.0.dummy_head.sroa.0.0.dummy_head.sroa.0.0.dummy_head.sroa.0.0. = load ptr, ptr %dummy_head.sroa.0, align 8
  ret ptr %dummy_head.sroa.0.0.dummy_head.sroa.0.0.dummy_head.sroa.0.0.dummy_head.sroa.0.0.dummy_head.sroa.0.0.
}